; Function Attrs: mustprogress uwtable
define dso_local void @_ZN5ImGui5TextVEPKcP13__va_list_tag(ptr noundef %0, ptr noundef %1) local_unnamed_addr #5 {
  %3 = alloca ptr, align 8
  %4 = alloca ptr, align 8
  %5 = load ptr, ptr @GImGui, align 8, !tbaa !4
  %6 = getelementptr inbounds nuw i8, ptr %5, i64 4928
  %7 = load ptr, ptr %6, align 8, !tbaa !9
  %8 = getelementptr inbounds nuw i8, ptr %7, i64 204
  store i8 1, ptr %8, align 4, !tbaa !130
  %9 = getelementptr inbounds nuw i8, ptr %7, i64 207
  %10 = load i8, ptr %9, align 1, !tbaa !151, !range !152, !noundef !153
  %11 = trunc nuw i8 %10 to i1
  br i1 %11, label %15, label %12

12:                                               ; preds = %2
  call void @llvm.lifetime.start.p0(i64 8, ptr nonnull %3) #43
  call void @llvm.lifetime.start.p0(i64 8, ptr nonnull %4) #43
  call void @_Z27ImFormatStringToTempBufferVPPKcS1_S0_P13__va_list_tag(ptr noundef nonnull %3, ptr noundef nonnull %4, ptr noundef %0, ptr noundef %1)
  %13 = load ptr, ptr %3, align 8, !tbaa !168
  %14 = load ptr, ptr %4, align 8, !tbaa !168
  call void @_ZN5ImGui6TextExEPKcS1_i(ptr noundef %13, ptr noundef %14, i32 noundef 1)
  call void @llvm.lifetime.end.p0(i64 8, ptr nonnull %4) #43
  call void @llvm.lifetime.end.p0(i64 8, ptr nonnull %3) #43
  br label %15

15:                                               ; preds = %2, %12
  ret void
}